; Function Attrs: nounwind uwtable
define void @lv_fragment_manager_replace(ptr noundef %0, ptr noundef %1, ptr noundef %2) local_unnamed_addr #0 {
  %4 = load ptr, ptr %2, align 8, !tbaa !27
  %.not.i = icmp eq ptr %0, null
  br i1 %.not.i, label %.preheader.i, label %5

.preheader.i:                                     ; preds = %3, %.preheader.i
  br label %.preheader.i

5:                                                ; preds = %3
  %6 = getelementptr inbounds nuw i8, ptr %0, i64 8
  %7 = tail call ptr @lv_ll_get_head(ptr noundef nonnull %6) #3
  %.not1113.i = icmp eq ptr %7, null
  br i1 %.not1113.i, label %lv_fragment_manager_find_by_container.exit.thread, label %.lr.ph.i

.lr.ph.i:                                         ; preds = %5, %12
  %.014.i = phi ptr [ %13, %12 ], [ %7, %5 ]
  %8 = getelementptr inbounds nuw i8, ptr %.014.i, i64 16
  %9 = load ptr, ptr %8, align 8, !tbaa !26
  %10 = load ptr, ptr %9, align 8, !tbaa !27
  %11 = icmp eq ptr %10, %4
  br i1 %11, label %lv_fragment_manager_find_by_container.exit, label %12

12:                                               ; preds = %.lr.ph.i
  %13 = tail call ptr @lv_ll_get_next(ptr noundef nonnull %6, ptr noundef nonnull %.014.i) #3
  %.not11.i = icmp eq ptr %13, null
  br i1 %.not11.i, label %lv_fragment_manager_find_by_container.exit.thread, label %.lr.ph.i, !llvm.loop !35

lv_fragment_manager_find_by_container.exit:       ; preds = %.lr.ph.i
  %14 = getelementptr inbounds nuw i8, ptr %.014.i, i64 24
  %15 = load ptr, ptr %14, align 8, !tbaa !10
  %.not = icmp eq ptr %15, null
  br i1 %.not, label %lv_fragment_manager_find_by_container.exit.thread, label %16

16:                                               ; preds = %lv_fragment_manager_find_by_container.exit
  tail call void @lv_fragment_manager_remove(ptr noundef nonnull %0, ptr noundef nonnull %15)
  br label %lv_fragment_manager_find_by_container.exit.thread

lv_fragment_manager_find_by_container.exit.thread: ; preds = %12, %5, %lv_fragment_manager_find_by_container.exit, %16
  %.not21.i.i = icmp eq ptr %1, null
  br i1 %.not21.i.i, label %.preheader23.i.i, label %17

.preheader23.i.i:                                 ; preds = %lv_fragment_manager_find_by_container.exit.thread, %.preheader23.i.i
  br label %.preheader23.i.i

17:                                               ; preds = %lv_fragment_manager_find_by_container.exit.thread
  %18 = getelementptr inbounds nuw i8, ptr %1, i64 8
  %19 = load ptr, ptr %18, align 8, !tbaa !18
  %20 = icmp eq ptr %19, null
  br i1 %20, label %21, label %.preheader24.i.i

.preheader24.i.i:                                 ; preds = %17, %.preheader24.i.i
  br label %.preheader24.i.i

21:                                               ; preds = %17
  %22 = tail call ptr @lv_ll_ins_tail(ptr noundef nonnull %6) #3
  tail call void @lv_memset(ptr noundef %22, i8 noundef zeroext 0, i64 noundef 40) #3
  %23 = load ptr, ptr %1, align 8, !tbaa !13
  store ptr %23, ptr %22, align 8, !tbaa !30
  %24 = getelementptr inbounds nuw i8, ptr %22, i64 8
  store ptr %0, ptr %24, align 8, !tbaa !31
  %25 = getelementptr inbounds nuw i8, ptr %22, i64 16
  store ptr %2, ptr %25, align 8, !tbaa !26
  %26 = getelementptr inbounds nuw i8, ptr %22, i64 24
  store ptr %1, ptr %26, align 8, !tbaa !10
  store ptr %22, ptr %18, align 8, !tbaa !18
  %27 = getelementptr inbounds nuw i8, ptr %23, i64 16
  %28 = load ptr, ptr %27, align 8, !tbaa !32
  %.not22.i.i = icmp eq ptr %28, null
  br i1 %.not22.i.i, label %fragment_attach.exit.i, label %29

29:                                               ; preds = %21
  tail call void %28(ptr noundef nonnull %1) #3
  br label %fragment_attach.exit.i

fragment_attach.exit.i:                           ; preds = %29, %21
  %30 = load ptr, ptr %0, align 8, !tbaa !3
  %.not.i8 = icmp eq ptr %30, null
  br i1 %.not.i8, label %37, label %31

31:                                               ; preds = %fragment_attach.exit.i
  %32 = getelementptr inbounds nuw i8, ptr %30, i64 8
  %33 = load ptr, ptr %32, align 8, !tbaa !18
  %34 = getelementptr inbounds nuw i8, ptr %33, i64 32
  %35 = load i8, ptr %34, align 8, !tbaa !33, !range !22, !noundef !23
  %36 = trunc nuw i8 %35 to i1
  br i1 %36, label %37, label %lv_fragment_manager_add.exit

37:                                               ; preds = %31, %fragment_attach.exit.i
  %38 = load ptr, ptr %26, align 8, !tbaa !10
  %.not.i6.i = icmp eq ptr %38, null
  br i1 %.not.i6.i, label %.preheader.i7.i, label %39

.preheader.i7.i:                                  ; preds = %37, %.preheader.i7.i
  br label %.preheader.i7.i

39:                                               ; preds = %37
  %40 = load ptr, ptr %25, align 8, !tbaa !26
  %.not5.i.i = icmp eq ptr %40, null
  br i1 %.not5.i.i, label %item_create_obj.exit.i, label %41

41:                                               ; preds = %39
  %42 = load ptr, ptr %40, align 8, !tbaa !27
  br label %item_create_obj.exit.i

item_create_obj.exit.i:                           ; preds = %41, %39
  %43 = phi ptr [ %42, %41 ], [ null, %39 ]
  %44 = tail call ptr @lv_fragment_create_obj(ptr noundef nonnull %38, ptr noundef %43) #3
  br label %lv_fragment_manager_add.exit

lv_fragment_manager_add.exit:                     ; preds = %31, %item_create_obj.exit.i
  ret void
}